; Function Attrs: mustprogress nounwind uwtable
define void @_ZN4LIEF2PE15RelocationEntry4sizeEm(ptr nonnull readnone align 8 captures(none) %0, i64 %1) unnamed_addr #3 align 2 {
  %3 = alloca %"struct.spdlog::source_loc", align 8
  %4 = tail call noundef nonnull align 8 dereferenceable(16) ptr @_ZN4LIEF7logging6Logger8instanceEPKc(ptr noundef nonnull @.str.21) #24
  %5 = load ptr, ptr %4, align 8, !tbaa !24
  call void @llvm.lifetime.start.p0(i64 24, ptr nonnull %3)
  call void @llvm.memset.p0.i64(ptr noundef nonnull align 8 dereferenceable(24) %3, i8 0, i64 24, i1 false)
  tail call void @_ZN6spdlog6logger4log_IJEEEvNS_10source_locENS_5level10level_enumEN3fmt3v1017basic_string_viewIcEEDpOT_(ptr noundef nonnull align 8 dereferenceable(208) %5, ptr noundef nonnull byval(%"struct.spdlog::source_loc") align 8 %3, i32 noundef 3, ptr nonnull @.str.3, i64 49)
  call void @llvm.lifetime.end.p0(i64 24, ptr nonnull %3)
  ret void
}